; Function Attrs: nounwind uwtable
define ptr @l___private_Lean_Elab_Binders_0__Lean_Elab_Term_expandBinderType___boxed(ptr noundef %0, ptr noundef %1) local_unnamed_addr #1 {
  %3 = tail call ptr @l_Lean_Syntax_getNumArgs(ptr noundef %1) #6
  %4 = ptrtoint ptr %3 to i64
  %5 = and i64 %4, 1
  %.not.i8 = icmp eq i64 %5, 0
  br i1 %.not.i8, label %7, label %lean_nat_eq.exit.thread.i, !prof !12

lean_nat_eq.exit.thread.i:                        ; preds = %2
  %6 = icmp eq ptr %3, inttoptr (i64 1 to ptr)
  br i1 %6, label %17, label %15

7:                                                ; preds = %2
  %8 = tail call zeroext i1 @lean_nat_big_eq(ptr noundef %3, ptr noundef nonnull inttoptr (i64 1 to ptr)) #6
  %9 = load i32, ptr %3, align 4, !tbaa !8
  %10 = icmp sgt i32 %9, 1
  br i1 %10, label %11, label %13, !prof !11

11:                                               ; preds = %7
  %12 = add nsw i32 %9, -1
  store i32 %12, ptr %3, align 4, !tbaa !8
  br i1 %8, label %17, label %15

13:                                               ; preds = %7
  %.not.i.i = icmp eq i32 %9, 0
  br i1 %.not.i.i, label %lean_dec.exit.i, label %14

14:                                               ; preds = %13
  tail call void @lean_dec_ref_cold(ptr noundef nonnull %3) #6
  br i1 %8, label %17, label %15

lean_dec.exit.i:                                  ; preds = %13
  br i1 %8, label %17, label %15

15:                                               ; preds = %lean_dec.exit.i, %14, %11, %lean_nat_eq.exit.thread.i
  %16 = tail call ptr @l_Lean_Syntax_getArg(ptr noundef %1, ptr noundef nonnull inttoptr (i64 3 to ptr)) #6
  br label %l___private_Lean_Elab_Binders_0__Lean_Elab_Term_expandBinderType.exit

17:                                               ; preds = %lean_dec.exit.i, %14, %11, %lean_nat_eq.exit.thread.i
  %18 = tail call ptr @l_Lean_mkHole(ptr noundef %0, i8 noundef zeroext 0) #6
  br label %l___private_Lean_Elab_Binders_0__Lean_Elab_Term_expandBinderType.exit

l___private_Lean_Elab_Binders_0__Lean_Elab_Term_expandBinderType.exit: ; preds = %15, %17
  %.0.i = phi ptr [ %16, %15 ], [ %18, %17 ]
  %19 = ptrtoint ptr %1 to i64
  %20 = and i64 %19, 1
  %.not = icmp eq i64 %20, 0
  br i1 %.not, label %21, label %lean_dec.exit5

21:                                               ; preds = %l___private_Lean_Elab_Binders_0__Lean_Elab_Term_expandBinderType.exit
  %22 = load i32, ptr %1, align 4, !tbaa !8
  %23 = icmp sgt i32 %22, 1
  br i1 %23, label %24, label %26, !prof !11

24:                                               ; preds = %21
  %25 = add nsw i32 %22, -1
  store i32 %25, ptr %1, align 4, !tbaa !8
  br label %lean_dec.exit5

26:                                               ; preds = %21
  %.not.i = icmp eq i32 %22, 0
  br i1 %.not.i, label %lean_dec.exit5, label %27

27:                                               ; preds = %26
  tail call void @lean_dec_ref_cold(ptr noundef nonnull %1) #6
  br label %lean_dec.exit5

lean_dec.exit5:                                   ; preds = %27, %26, %24, %l___private_Lean_Elab_Binders_0__Lean_Elab_Term_expandBinderType.exit
  %28 = ptrtoint ptr %0 to i64
  %29 = and i64 %28, 1
  %.not9 = icmp eq i64 %29, 0
  br i1 %.not9, label %30, label %lean_dec.exit

30:                                               ; preds = %lean_dec.exit5
  %31 = load i32, ptr %0, align 4, !tbaa !8
  %32 = icmp sgt i32 %31, 1
  br i1 %32, label %33, label %35, !prof !11

33:                                               ; preds = %30
  %34 = add nsw i32 %31, -1
  store i32 %34, ptr %0, align 4, !tbaa !8
  br label %lean_dec.exit

35:                                               ; preds = %30
  %.not.i6 = icmp eq i32 %31, 0
  br i1 %.not.i6, label %lean_dec.exit, label %36

36:                                               ; preds = %35
  tail call void @lean_dec_ref_cold(ptr noundef nonnull %0) #6
  br label %lean_dec.exit

lean_dec.exit:                                    ; preds = %36, %35, %33, %lean_dec.exit5
  ret ptr %.0.i
}